; Function Attrs: inlinehint mustprogress nounwind uwtable
define internal fastcc void @_ZN2cv12_GLOBAL__N_18GSafePtrI11_GstElementE7releaseEv(ptr noundef nonnull align 8 captures(none) dereferenceable(8) %0) unnamed_addr #5 align 2 personality ptr @__gxx_personality_v0 {
  %2 = load ptr, ptr %0, align 8, !tbaa !62
  %.not = icmp eq ptr %2, null
  br i1 %.not, label %5, label %3

3:                                                ; preds = %1
  %4 = invoke ptr @g_type_check_instance_cast(ptr noundef nonnull %2, i64 noundef 80)
          to label %.noexc unwind label %6

.noexc:                                           ; preds = %3
  invoke void @gst_object_unref(ptr noundef %4)
          to label %_ZN2cv12_GLOBAL__N_116GSafePtr_releaseI11_GstElementEEvPPT_.exit unwind label %6

_ZN2cv12_GLOBAL__N_116GSafePtr_releaseI11_GstElementEEvPPT_.exit: ; preds = %.noexc
  store ptr null, ptr %0, align 8, !tbaa !63
  br label %5

5:                                                ; preds = %_ZN2cv12_GLOBAL__N_116GSafePtr_releaseI11_GstElementEEvPPT_.exit, %1
  ret void

6:                                                ; preds = %.noexc, %3
  %7 = landingpad { ptr, i32 }
          catch ptr null
  %8 = extractvalue { ptr, i32 } %7, 0
  tail call void @__clang_call_terminate(ptr %8) #32
  unreachable
}